; Function Attrs: nofree norecurse nosync nounwind memory(readwrite, inaccessiblemem: none) uwtable
define dso_local ptr @zend_generator_update_root(ptr noundef %0) local_unnamed_addr #6 {
  %2 = getelementptr inbounds nuw i8, ptr %0, i64 152
  %3 = load ptr, ptr %2, align 8, !tbaa !94
  br label %4

4:                                                ; preds = %4, %1
  %.0 = phi ptr [ %3, %1 ], [ %6, %4 ]
  %5 = getelementptr inbounds nuw i8, ptr %.0, i64 152
  %6 = load ptr, ptr %5, align 8, !tbaa !94
  %.not = icmp eq ptr %6, null
  br i1 %.not, label %7, label %4

7:                                                ; preds = %4
  %8 = getelementptr inbounds nuw i8, ptr %.0, i64 176
  %9 = load ptr, ptr %8, align 8, !tbaa !24
  %.not8.i = icmp eq ptr %9, null
  br i1 %.not8.i, label %clear_link_to_leaf.exit, label %10

10:                                               ; preds = %7
  %11 = getelementptr inbounds nuw i8, ptr %9, i64 176
  store ptr null, ptr %11, align 8, !tbaa !24
  store ptr null, ptr %8, align 8, !tbaa !24
  br label %clear_link_to_leaf.exit

clear_link_to_leaf.exit:                          ; preds = %7, %10
  store ptr %0, ptr %8, align 8, !tbaa !24
  %12 = getelementptr inbounds nuw i8, ptr %0, i64 176
  store ptr %.0, ptr %12, align 8, !tbaa !24
  ret ptr %.0
}